; Function Attrs: mustprogress uwtable
define noundef zeroext i1 @_ZN2cv6legacy8tracking12MultiTracker6updateERKNS_11_InputArrayERSt6vectorINS_5Rect_IdEESaIS8_EE(ptr noundef nonnull align 8 dereferenceable(56) %0, ptr noundef nonnull align 8 dereferenceable(24) %1, ptr noundef nonnull align 8 dereferenceable(24) %2) local_unnamed_addr #3 align 2 {
  %4 = getelementptr inbounds nuw i8, ptr %0, i64 8
  %5 = getelementptr inbounds nuw i8, ptr %0, i64 16
  %6 = load ptr, ptr %5, align 8, !tbaa !14
  %7 = load ptr, ptr %4, align 8, !tbaa !11
  %.not.i = icmp eq ptr %6, %7
  br i1 %.not.i, label %_ZN2cv6legacy8tracking12MultiTracker6updateERKNS_11_InputArrayE.exit, label %.lr.ph.i

.lr.ph.i:                                         ; preds = %3
  %8 = getelementptr inbounds nuw i8, ptr %0, i64 32
  br label %9

9:                                                ; preds = %9, %.lr.ph.i
  %10 = phi ptr [ %7, %.lr.ph.i ], [ %21, %9 ]
  %11 = phi i64 [ 0, %.lr.ph.i ], [ %19, %9 ]
  %.010.i = phi i32 [ 0, %.lr.ph.i ], [ %18, %9 ]
  %.079.i = phi i1 [ true, %.lr.ph.i ], [ %17, %9 ]
  %12 = getelementptr inbounds nuw %"struct.cv::Ptr", ptr %10, i64 %11
  %13 = load ptr, ptr %12, align 8, !tbaa !28
  %14 = load ptr, ptr %8, align 8, !tbaa !6
  %15 = getelementptr inbounds nuw %"class.cv::Rect_", ptr %14, i64 %11
  %16 = tail call noundef zeroext i1 @_ZN2cv6legacy8tracking7Tracker6updateERKNS_11_InputArrayERNS_5Rect_IdEE(ptr noundef nonnull align 8 dereferenceable(64) %13, ptr noundef nonnull align 8 dereferenceable(24) %1, ptr noundef nonnull align 8 dereferenceable(32) %15)
  %17 = and i1 %.079.i, %16
  %18 = add i32 %.010.i, 1
  %19 = zext i32 %18 to i64
  %20 = load ptr, ptr %5, align 8, !tbaa !14
  %21 = load ptr, ptr %4, align 8, !tbaa !11
  %22 = ptrtoint ptr %20 to i64
  %23 = ptrtoint ptr %21 to i64
  %24 = sub i64 %22, %23
  %25 = ashr exact i64 %24, 4
  %26 = icmp ugt i64 %25, %19
  br i1 %26, label %9, label %_ZN2cv6legacy8tracking12MultiTracker6updateERKNS_11_InputArrayE.exit, !llvm.loop !43

_ZN2cv6legacy8tracking12MultiTracker6updateERKNS_11_InputArrayE.exit: ; preds = %9, %3
  %.07.lcssa.i = phi i1 [ true, %3 ], [ %17, %9 ]
  %27 = getelementptr inbounds nuw i8, ptr %0, i64 32
  %28 = tail call noundef nonnull align 8 dereferenceable(24) ptr @_ZNSt6vectorIN2cv5Rect_IdEESaIS2_EEaSERKS4_(ptr noundef nonnull align 8 dereferenceable(24) %2, ptr noundef nonnull align 8 dereferenceable(24) %27)
  ret i1 %.07.lcssa.i
}